target datalayout = "e-m:e-p270:32:32-p271:32:32-p272:64:64-i64:64-i128:128-f80:128-n8:16:32:64-S128"
target triple = "x86_64-pc-linux-gnu"

%struct.Node = type { i32 }
%struct.Var = type { %struct.Expr, i32, i16, i32, i32, i32, ptr, i32, i32, i32, i16, i32 }
%struct.Expr = type { i32 }
%struct.ForEachState = type { ptr, i32 }
%struct.List = type { i32, i32, i32, ptr, [0 x %union.ListCell] }
%union.ListCell = type { ptr }
%struct.OpExpr = type { %struct.Expr, i32, i32, i32, i8, i32, i32, ptr, i32 }
%struct.ScalarArrayOpExpr = type { %struct.Expr, i32, i32, i32, i32, i8, i32, ptr, i32 }
%struct.RowCompareExpr = type { %struct.Expr, i32, ptr, ptr, ptr, ptr, ptr }

@.str.1 = private unnamed_addr constant [18 x i8] c"publicationcmds.c\00", align 1
@.str.29 = private unnamed_addr constant [32 x i8] c"System columns are not allowed.\00", align 1
@.str.30 = private unnamed_addr constant [40 x i8] c"User-defined operators are not allowed.\00", align 1
@.str.31 = private unnamed_addr constant [133 x i8] c"Only columns, constants, built-in operators, built-in data types, built-in collations, and immutable built-in functions are allowed.\00", align 1
@.str.32 = private unnamed_addr constant [36 x i8] c"User-defined types are not allowed.\00", align 1
@.str.33 = private unnamed_addr constant [60 x i8] c"User-defined or built-in mutable functions are not allowed.\00", align 1
@.str.34 = private unnamed_addr constant [41 x i8] c"User-defined collations are not allowed.\00", align 1
@.str.35 = private unnamed_addr constant [37 x i8] c"invalid publication WHERE expression\00", align 1
@.str.36 = private unnamed_addr constant [3 x i8] c"%s\00", align 1
@__func__.check_simple_rowfilter_expr_walker = private unnamed_addr constant [35 x i8] c"check_simple_rowfilter_expr_walker\00", align 1

; Function Attrs: nounwind uwtable
define internal zeroext i1 @check_simple_rowfilter_expr_walker(ptr noundef %0, ptr noundef %1) #0 {
  %3 = alloca i1, align 1
  %4 = alloca ptr, align 8
  %5 = alloca ptr, align 8
  %6 = alloca ptr, align 8
  %7 = alloca i32, align 4
  %8 = alloca ptr, align 8
  %9 = alloca %struct.ForEachState, align 8
  store ptr %0, ptr %4, align 8
  store ptr %1, ptr %5, align 8
  call void @llvm.lifetime.start.p0(i64 8, ptr %6) #10
  store ptr null, ptr %6, align 8
  %10 = load ptr, ptr %4, align 8
  %11 = icmp eq ptr %10, null
  br i1 %11, label %12, label %13

12:                                               ; preds = %2
  store i1 false, ptr %3, align 1
  store i32 1, ptr %7, align 4
  br label %141

13:                                               ; preds = %2
  %14 = load ptr, ptr %4, align 8
  %15 = getelementptr inbounds nuw %struct.Node, ptr %14, i32 0, i32 0
  %16 = load i32, ptr %15, align 4
  switch i32 %16, label %85 [
    i32 6, label %17
    i32 17, label %25
    i32 18, label %25
    i32 19, label %25
    i32 20, label %32
    i32 37, label %39
    i32 7, label %84
    i32 15, label %84
    i32 21, label %84
    i32 27, label %84
    i32 31, label %84
    i32 32, label %84
    i32 34, label %84
    i32 35, label %84
    i32 36, label %84
    i32 38, label %84
    i32 39, label %84
    i32 41, label %84
    i32 52, label %84
    i32 53, label %84
    i32 1, label %84
  ]

17:                                               ; preds = %13
  %18 = load ptr, ptr %4, align 8
  %19 = getelementptr inbounds nuw %struct.Var, ptr %18, i32 0, i32 2
  %20 = load i16, ptr %19, align 8
  %21 = sext i16 %20 to i32
  %22 = icmp slt i32 %21, 0
  br i1 %22, label %23, label %24

23:                                               ; preds = %17
  store ptr @.str.29, ptr %6, align 8
  br label %24

24:                                               ; preds = %23, %17
  br label %86

25:                                               ; preds = %13, %13, %13
  %26 = load ptr, ptr %4, align 8
  %27 = getelementptr inbounds nuw %struct.OpExpr, ptr %26, i32 0, i32 1
  %28 = load i32, ptr %27, align 4
  %29 = icmp uge i32 %28, 16384
  br i1 %29, label %30, label %31

30:                                               ; preds = %25
  store ptr @.str.30, ptr %6, align 8
  br label %31

31:                                               ; preds = %30, %25
  br label %86

32:                                               ; preds = %13
  %33 = load ptr, ptr %4, align 8
  %34 = getelementptr inbounds nuw %struct.ScalarArrayOpExpr, ptr %33, i32 0, i32 1
  %35 = load i32, ptr %34, align 4
  %36 = icmp uge i32 %35, 16384
  br i1 %36, label %37, label %38

37:                                               ; preds = %32
  store ptr @.str.30, ptr %6, align 8
  br label %38

38:                                               ; preds = %37, %32
  br label %86

39:                                               ; preds = %13
  call void @llvm.lifetime.start.p0(i64 8, ptr %8) #10
  call void @llvm.lifetime.start.p0(i64 16, ptr %9) #10
  %40 = getelementptr inbounds nuw %struct.ForEachState, ptr %9, i32 0, i32 0
  %41 = load ptr, ptr %4, align 8
  %42 = getelementptr inbounds nuw %struct.RowCompareExpr, ptr %41, i32 0, i32 2
  %43 = load ptr, ptr %42, align 8
  store ptr %43, ptr %40, align 8
  %44 = getelementptr inbounds nuw %struct.ForEachState, ptr %9, i32 0, i32 1
  store i32 0, ptr %44, align 8
  %45 = getelementptr i8, ptr %9, i64 12
  call void @llvm.memset.p0.i64(ptr align 4 %45, i8 0, i64 4, i1 false)
  br label %46

46:                                               ; preds = %78, %39
  %47 = getelementptr inbounds nuw %struct.ForEachState, ptr %9, i32 0, i32 0
  %48 = load ptr, ptr %47, align 8
  %49 = icmp ne ptr %48, null
  br i1 %49, label %50, label %67

50:                                               ; preds = %46
  %51 = getelementptr inbounds nuw %struct.ForEachState, ptr %9, i32 0, i32 1
  %52 = load i32, ptr %51, align 8
  %53 = getelementptr inbounds nuw %struct.ForEachState, ptr %9, i32 0, i32 0
  %54 = load ptr, ptr %53, align 8
  %55 = getelementptr inbounds nuw %struct.List, ptr %54, i32 0, i32 1
  %56 = load i32, ptr %55, align 4
  %57 = icmp slt i32 %52, %56
  br i1 %57, label %58, label %67

58:                                               ; preds = %50
  %59 = getelementptr inbounds nuw %struct.ForEachState, ptr %9, i32 0, i32 0
  %60 = load ptr, ptr %59, align 8
  %61 = getelementptr inbounds nuw %struct.List, ptr %60, i32 0, i32 3
  %62 = load ptr, ptr %61, align 8
  %63 = getelementptr inbounds nuw %struct.ForEachState, ptr %9, i32 0, i32 1
  %64 = load i32, ptr %63, align 8
  %65 = sext i32 %64 to i64
  %66 = getelementptr inbounds %union.ListCell, ptr %62, i64 %65
  store ptr %66, ptr %8, align 8
  br label %68

67:                                               ; preds = %50, %46
  store ptr null, ptr %8, align 8
  br label %68

68:                                               ; preds = %67, %58
  %69 = phi i32 [ 1, %58 ], [ 0, %67 ]
  %70 = icmp ne i32 %69, 0
  br i1 %70, label %72, label %71

71:                                               ; preds = %68
  store i32 3, ptr %7, align 4
  br label %82

72:                                               ; preds = %68
  %73 = load ptr, ptr %8, align 8
  %74 = load i32, ptr %73, align 8
  %75 = icmp uge i32 %74, 16384
  br i1 %75, label %76, label %77

76:                                               ; preds = %72
  store ptr @.str.30, ptr %6, align 8
  store i32 3, ptr %7, align 4
  br label %82

77:                                               ; preds = %72
  br label %78

78:                                               ; preds = %77
  %79 = getelementptr inbounds nuw %struct.ForEachState, ptr %9, i32 0, i32 1
  %80 = load i32, ptr %79, align 8
  %81 = add i32 %80, 1
  store i32 %81, ptr %79, align 8
  br label %46, !llvm.loop !25

82:                                               ; preds = %76, %71
  call void @llvm.lifetime.end.p0(i64 16, ptr %9) #10
  br label %83

83:                                               ; preds = %82
  call void @llvm.lifetime.end.p0(i64 8, ptr %8) #10
  br label %86

84:                                               ; preds = %13, %13, %13, %13, %13, %13, %13, %13, %13, %13, %13, %13, %13, %13, %13
  br label %86

85:                                               ; preds = %13
  store ptr @.str.31, ptr %6, align 8
  br label %86

86:                                               ; preds = %85, %84, %83, %38, %31, %24
  %87 = load ptr, ptr %6, align 8
  %88 = icmp ne ptr %87, null
  br i1 %88, label %116, label %89

89:                                               ; preds = %86
  %90 = load ptr, ptr %4, align 8
  %91 = getelementptr inbounds nuw %struct.Node, ptr %90, i32 0, i32 0
  %92 = load i32, ptr %91, align 4
  %93 = icmp eq i32 %92, 1
  br i1 %93, label %116, label %94

94:                                               ; preds = %89
  %95 = load ptr, ptr %4, align 8
  %96 = call i32 @exprType(ptr noundef %95)
  %97 = icmp uge i32 %96, 16384
  br i1 %97, label %98, label %99

98:                                               ; preds = %94
  store ptr @.str.32, ptr %6, align 8
  br label %115

99:                                               ; preds = %94
  %100 = load ptr, ptr %4, align 8
  %101 = load ptr, ptr %5, align 8
  %102 = call zeroext i1 @check_functions_in_node(ptr noundef %100, ptr noundef @contain_mutable_or_user_functions_checker, ptr noundef %101)
  br i1 %102, label %103, label %104

103:                                              ; preds = %99
  store ptr @.str.33, ptr %6, align 8
  br label %114

104:                                              ; preds = %99
  %105 = load ptr, ptr %4, align 8
  %106 = call i32 @exprCollation(ptr noundef %105)
  %107 = icmp uge i32 %106, 16384
  br i1 %107, label %112, label %108

108:                                              ; preds = %104
  %109 = load ptr, ptr %4, align 8
  %110 = call i32 @exprInputCollation(ptr noundef %109)
  %111 = icmp uge i32 %110, 16384
  br i1 %111, label %112, label %113

112:                                              ; preds = %108, %104
  store ptr @.str.34, ptr %6, align 8
  br label %113

113:                                              ; preds = %112, %108
  br label %114

114:                                              ; preds = %113, %103
  br label %115

115:                                              ; preds = %114, %98
  br label %116

116:                                              ; preds = %115, %89, %86
  %117 = load ptr, ptr %6, align 8
  %118 = icmp ne ptr %117, null
  br i1 %118, label %119, label %137

119:                                              ; preds = %116
  br label %120

120:                                              ; preds = %119
  br i1 true, label %121, label %123

121:                                              ; preds = %120
  %122 = call zeroext i1 @errstart_cold(i32 noundef 21, ptr noundef null) #11
  br i1 %122, label %125, label %134

123:                                              ; preds = %120
  %124 = call zeroext i1 @errstart(i32 noundef 21, ptr noundef null)
  br i1 %124, label %125, label %134

125:                                              ; preds = %123, %121
  %126 = call i32 @errcode(i32 noundef 1088)
  %127 = call i32 (ptr, ...) @errmsg(ptr noundef @.str.35)
  %128 = load ptr, ptr %6, align 8
  %129 = call i32 (ptr, ...) @errdetail_internal(ptr noundef @.str.36, ptr noundef %128)
  %130 = load ptr, ptr %5, align 8
  %131 = load ptr, ptr %4, align 8
  %132 = call i32 @exprLocation(ptr noundef %131)
  %133 = call i32 @parser_errposition(ptr noundef %130, i32 noundef %132)
  call void @errfinish(ptr noundef @.str.1, i32 noundef 636, ptr noundef @__func__.check_simple_rowfilter_expr_walker)
  br label %134

134:                                              ; preds = %125, %123, %121
  unreachable

135:                                              ; No predecessors!
  br label %136

136:                                              ; preds = %135
  br label %137

137:                                              ; preds = %136, %116
  %138 = load ptr, ptr %4, align 8
  %139 = load ptr, ptr %5, align 8
  %140 = call zeroext i1 @expression_tree_walker_impl(ptr noundef %138, ptr noundef @check_simple_rowfilter_expr_walker, ptr noundef %139)
  store i1 %140, ptr %3, align 1
  store i32 1, ptr %7, align 4
  br label %141

141:                                              ; preds = %137, %12
  call void @llvm.lifetime.end.p0(i64 8, ptr %6) #10
  %142 = load i1, ptr %3, align 1
  ret i1 %142
}