; Function Attrs: nounwind uwtable
define internal zeroext i1 @check_simple_rowfilter_expr_walker(ptr noundef %0, ptr noundef %1) #0 {
  %3 = icmp eq ptr %0, null
  br i1 %3, label %49, label %4

4:                                                ; preds = %2
  %5 = load i32, ptr %0, align 4
  switch i32 %5, label %select.unfold [
    i32 6, label %6
    i32 17, label %10
    i32 18, label %10
    i32 19, label %10
    i32 20, label %14
    i32 37, label %18
    i32 1, label %47
    i32 7, label %.thread43
    i32 15, label %.thread43
    i32 21, label %.thread43
    i32 27, label %.thread43
    i32 31, label %.thread43
    i32 32, label %.thread43
    i32 34, label %.thread43
    i32 35, label %.thread43
    i32 36, label %.thread43
    i32 38, label %.thread43
    i32 39, label %.thread43
    i32 41, label %.thread43
    i32 52, label %.thread43
    i32 53, label %.thread43
  ]

6:                                                ; preds = %4
  %7 = getelementptr inbounds nuw i8, ptr %0, i64 8
  %8 = load i16, ptr %7, align 8
  %9 = icmp slt i16 %8, 0
  br i1 %9, label %select.unfold, label %.thread43

10:                                               ; preds = %4, %4, %4
  %11 = getelementptr inbounds nuw i8, ptr %0, i64 4
  %12 = load i32, ptr %11, align 4
  %13 = icmp ugt i32 %12, 16383
  br i1 %13, label %select.unfold, label %.thread43

14:                                               ; preds = %4
  %15 = getelementptr inbounds nuw i8, ptr %0, i64 4
  %16 = load i32, ptr %15, align 4
  %17 = icmp ugt i32 %16, 16383
  br i1 %17, label %select.unfold, label %.thread43

18:                                               ; preds = %4
  %19 = getelementptr inbounds nuw i8, ptr %0, i64 8
  %20 = load ptr, ptr %19, align 8
  %.not = icmp eq ptr %20, null
  br i1 %.not, label %.thread43, label %.lr.ph

.lr.ph:                                           ; preds = %18
  %21 = getelementptr inbounds nuw i8, ptr %20, i64 4
  %22 = load i32, ptr %21, align 4
  %23 = icmp sgt i32 %22, 0
  br i1 %23, label %.lr.ph52, label %.thread43

.lr.ph52:                                         ; preds = %.lr.ph
  %24 = getelementptr inbounds nuw i8, ptr %20, i64 16
  %25 = load ptr, ptr %24, align 8
  %wide.trip.count = zext nneg i32 %22 to i64
  br label %27

26:                                               ; preds = %27
  %indvars.iv.next = add nuw nsw i64 %indvars.iv, 1
  %exitcond.not = icmp eq i64 %indvars.iv.next, %wide.trip.count
  br i1 %exitcond.not, label %.thread43, label %27

27:                                               ; preds = %.lr.ph52, %26
  %indvars.iv = phi i64 [ 0, %.lr.ph52 ], [ %indvars.iv.next, %26 ]
  %28 = getelementptr inbounds nuw %union.ListCell, ptr %25, i64 %indvars.iv
  %29 = load i32, ptr %28, align 8
  %30 = icmp ugt i32 %29, 16383
  br i1 %30, label %select.unfold, label %26

.thread43:                                        ; preds = %26, %18, %.lr.ph, %4, %4, %4, %4, %4, %4, %4, %4, %4, %4, %4, %4, %4, %4, %14, %10, %6
  %31 = tail call i32 @exprType(ptr noundef nonnull %0) #8
  %32 = icmp ugt i32 %31, 16383
  br i1 %32, label %select.unfold, label %33

33:                                               ; preds = %.thread43
  %34 = tail call zeroext i1 @check_functions_in_node(ptr noundef nonnull %0, ptr noundef nonnull @contain_mutable_or_user_functions_checker, ptr noundef %1) #8
  br i1 %34, label %select.unfold, label %35

35:                                               ; preds = %33
  %36 = tail call i32 @exprCollation(ptr noundef nonnull %0) #8
  %37 = icmp ugt i32 %36, 16383
  br i1 %37, label %select.unfold, label %38

38:                                               ; preds = %35
  %39 = tail call i32 @exprInputCollation(ptr noundef nonnull %0) #8
  %40 = icmp ugt i32 %39, 16383
  br i1 %40, label %select.unfold, label %47

select.unfold:                                    ; preds = %27, %4, %35, %38, %14, %10, %6, %.thread43, %33
  %.2.ph = phi ptr [ @.str.33, %33 ], [ @.str.32, %.thread43 ], [ @.str.31, %4 ], [ @.str.29, %6 ], [ @.str.30, %10 ], [ @.str.30, %14 ], [ @.str.34, %38 ], [ @.str.34, %35 ], [ @.str.30, %27 ]
  %41 = tail call zeroext i1 @errstart_cold(i32 noundef 21, ptr noundef null) #9
  tail call void @llvm.assume(i1 %41)
  %42 = tail call i32 @errcode(i32 noundef 1088) #8
  %43 = tail call i32 (ptr, ...) @errmsg(ptr noundef nonnull @.str.35) #8
  %44 = tail call i32 (ptr, ...) @errdetail_internal(ptr noundef nonnull @.str.36, ptr noundef nonnull %.2.ph) #8
  %45 = tail call i32 @exprLocation(ptr noundef nonnull %0) #8
  %46 = tail call i32 @parser_errposition(ptr noundef %1, i32 noundef %45) #8
  tail call void @errfinish(ptr noundef nonnull @.str.1, i32 noundef 636, ptr noundef nonnull @__func__.check_simple_rowfilter_expr_walker) #8
  unreachable

47:                                               ; preds = %4, %38
  %48 = tail call zeroext i1 @expression_tree_walker_impl(ptr noundef nonnull %0, ptr noundef nonnull @check_simple_rowfilter_expr_walker, ptr noundef %1) #8
  br label %49

49:                                               ; preds = %2, %47
  %.0 = phi i1 [ %48, %47 ], [ false, %2 ]
  ret i1 %.0
}